target datalayout = "e-m:e-p270:32:32-p271:32:32-p272:64:64-i64:64-i128:128-f80:128-n8:16:32:64-S128"
target triple = "x86_64-pc-linux-gnu"

%"struct.absl::debugging_internal::State" = type { ptr, ptr, i32, i32, i32, %"struct.absl::debugging_internal::ParseState" }
%"struct.absl::debugging_internal::ParseState" = type { i32, i32, i32, i32 }
%"class.absl::debugging_internal::(anonymous namespace)::ComplexityGuard" = type { ptr }

@.str.9 = private unnamed_addr constant [3 x i8] c"tT\00", align 1

; Function Attrs: mustprogress nounwind uwtable
define internal void @_ZN4absl18debugging_internal12_GLOBAL__N_119UpdateHighWaterMarkEPNS0_5StateE(ptr noundef %0) #3 {
  %2 = alloca ptr, align 8
  store ptr %0, ptr %2, align 8, !tbaa !16
  ret void
}

; Function Attrs: inlinehint mustprogress nounwind uwtable
define internal noundef ptr @_ZN4absl18debugging_internalL14RemainingInputEPNS0_5StateE(ptr noundef %0) #5 {
  %2 = alloca ptr, align 8
  store ptr %0, ptr %2, align 8, !tbaa !16
  %3 = load ptr, ptr %2, align 8, !tbaa !16
  %4 = getelementptr inbounds nuw %"struct.absl::debugging_internal::State", ptr %3, i32 0, i32 0
  %5 = load ptr, ptr %4, align 8, !tbaa !17
  %6 = load ptr, ptr %2, align 8, !tbaa !16
  %7 = getelementptr inbounds nuw %"struct.absl::debugging_internal::State", ptr %6, i32 0, i32 5
  %8 = getelementptr inbounds nuw %"struct.absl::debugging_internal::ParseState", ptr %7, i32 0, i32 0
  %9 = load i32, ptr %8, align 4, !tbaa !22
  %10 = sext i32 %9 to i64
  %11 = getelementptr inbounds i8, ptr %5, i64 %10
  ret ptr %11
}

; Function Attrs: mustprogress nounwind uwtable
define internal void @_ZN4absl18debugging_internal12_GLOBAL__N_115ComplexityGuardD2Ev(ptr noundef nonnull align 8 dereferenceable(8) %0) unnamed_addr #3 align 2 {
  %2 = alloca ptr, align 8
  store ptr %0, ptr %2, align 8, !tbaa !27
  %3 = load ptr, ptr %2, align 8
  %4 = getelementptr inbounds nuw %"class.absl::debugging_internal::(anonymous namespace)::ComplexityGuard", ptr %3, i32 0, i32 0
  %5 = load ptr, ptr %4, align 8, !tbaa !29
  %6 = getelementptr inbounds nuw %"struct.absl::debugging_internal::State", ptr %5, i32 0, i32 3
  %7 = load i32, ptr %6, align 4, !tbaa !20
  %8 = add nsw i32 %7, -1
  store i32 %8, ptr %6, align 4, !tbaa !20
  ret void
}

; Function Attrs: mustprogress uwtable
define internal noundef zeroext i1 @_ZN4absl18debugging_internalL14ParseCharClassEPNS0_5StateEPKc(ptr noundef %0, ptr noundef %1) #0 personality ptr @__gxx_personality_v0 {
  %3 = alloca i1, align 1
  %4 = alloca ptr, align 8
  %5 = alloca ptr, align 8
  %6 = alloca %"class.absl::debugging_internal::(anonymous namespace)::ComplexityGuard", align 8
  %7 = alloca i32, align 4
  %8 = alloca ptr, align 8
  %9 = alloca i32, align 4
  %10 = alloca ptr, align 8
  store ptr %0, ptr %4, align 8, !tbaa !16
  store ptr %1, ptr %5, align 8, !tbaa !4
  call void @llvm.lifetime.start.p0(i64 8, ptr %6) #12
  %11 = load ptr, ptr %4, align 8, !tbaa !16
  call void @_ZN4absl18debugging_internal12_GLOBAL__N_115ComplexityGuardC2EPNS0_5StateE(ptr noundef nonnull align 8 dereferenceable(8) %6, ptr noundef %11)
  %12 = call noundef zeroext i1 @_ZNK4absl18debugging_internal12_GLOBAL__N_115ComplexityGuard12IsTooComplexEv(ptr noundef nonnull align 8 dereferenceable(8) %6)
  br i1 %12, label %13, label %14

13:                                               ; preds = %2
  store i1 false, ptr %3, align 1
  store i32 1, ptr %7, align 4
  br label %62

14:                                               ; preds = %2
  %15 = load ptr, ptr %4, align 8, !tbaa !16
  %16 = invoke noundef ptr @_ZN4absl18debugging_internalL14RemainingInputEPNS0_5StateE(ptr noundef %15)
          to label %17 unwind label %23

17:                                               ; preds = %14
  %18 = getelementptr inbounds i8, ptr %16, i64 0
  %19 = load i8, ptr %18, align 1, !tbaa !11
  %20 = sext i8 %19 to i32
  %21 = icmp eq i32 %20, 0
  br i1 %21, label %22, label %27

22:                                               ; preds = %17
  store i1 false, ptr %3, align 1
  store i32 1, ptr %7, align 4
  br label %62

23:                                               ; preds = %14
  %24 = landingpad { ptr, i32 }
          cleanup
  %25 = extractvalue { ptr, i32 } %24, 0
  store ptr %25, ptr %8, align 8
  %26 = extractvalue { ptr, i32 } %24, 1
  store i32 %26, ptr %9, align 4
  br label %64

27:                                               ; preds = %17
  call void @llvm.lifetime.start.p0(i64 8, ptr %10) #12
  %28 = load ptr, ptr %5, align 8, !tbaa !4
  store ptr %28, ptr %10, align 8, !tbaa !4
  br label %29

29:                                               ; preds = %57, %27
  %30 = load ptr, ptr %10, align 8, !tbaa !4
  %31 = load i8, ptr %30, align 1, !tbaa !11
  %32 = sext i8 %31 to i32
  %33 = icmp ne i32 %32, 0
  br i1 %33, label %34, label %60

34:                                               ; preds = %29
  %35 = load ptr, ptr %4, align 8, !tbaa !16
  %36 = invoke noundef ptr @_ZN4absl18debugging_internalL14RemainingInputEPNS0_5StateE(ptr noundef %35)
          to label %37 unwind label %52

37:                                               ; preds = %34
  %38 = getelementptr inbounds i8, ptr %36, i64 0
  %39 = load i8, ptr %38, align 1, !tbaa !11
  %40 = sext i8 %39 to i32
  %41 = load ptr, ptr %10, align 8, !tbaa !4
  %42 = load i8, ptr %41, align 1, !tbaa !11
  %43 = sext i8 %42 to i32
  %44 = icmp eq i32 %40, %43
  br i1 %44, label %45, label %56

45:                                               ; preds = %37
  %46 = load ptr, ptr %4, align 8, !tbaa !16
  %47 = getelementptr inbounds nuw %"struct.absl::debugging_internal::State", ptr %46, i32 0, i32 5
  %48 = getelementptr inbounds nuw %"struct.absl::debugging_internal::ParseState", ptr %47, i32 0, i32 0
  %49 = load i32, ptr %48, align 4, !tbaa !22
  %50 = add nsw i32 %49, 1
  store i32 %50, ptr %48, align 4, !tbaa !22
  %51 = load ptr, ptr %4, align 8, !tbaa !16
  call void @_ZN4absl18debugging_internal12_GLOBAL__N_119UpdateHighWaterMarkEPNS0_5StateE(ptr noundef %51)
  store i1 true, ptr %3, align 1
  store i32 1, ptr %7, align 4
  br label %61

52:                                               ; preds = %34
  %53 = landingpad { ptr, i32 }
          cleanup
  %54 = extractvalue { ptr, i32 } %53, 0
  store ptr %54, ptr %8, align 8
  %55 = extractvalue { ptr, i32 } %53, 1
  store i32 %55, ptr %9, align 4
  call void @llvm.lifetime.end.p0(i64 8, ptr %10) #12
  br label %64

56:                                               ; preds = %37
  br label %57

57:                                               ; preds = %56
  %58 = load ptr, ptr %10, align 8, !tbaa !4
  %59 = getelementptr inbounds nuw i8, ptr %58, i32 1
  store ptr %59, ptr %10, align 8, !tbaa !4
  br label %29, !llvm.loop !54

60:                                               ; preds = %29
  store i1 false, ptr %3, align 1
  store i32 1, ptr %7, align 4
  br label %61

61:                                               ; preds = %60, %45
  call void @llvm.lifetime.end.p0(i64 8, ptr %10) #12
  br label %62

62:                                               ; preds = %61, %22, %13
  call void @_ZN4absl18debugging_internal12_GLOBAL__N_115ComplexityGuardD2Ev(ptr noundef nonnull align 8 dereferenceable(8) %6) #12
  call void @llvm.lifetime.end.p0(i64 8, ptr %6) #12
  %63 = load i1, ptr %3, align 1
  ret i1 %63

64:                                               ; preds = %52, %23
  call void @_ZN4absl18debugging_internal12_GLOBAL__N_115ComplexityGuardD2Ev(ptr noundef nonnull align 8 dereferenceable(8) %6) #12
  call void @llvm.lifetime.end.p0(i64 8, ptr %6) #12
  br label %65

65:                                               ; preds = %64
  %66 = load ptr, ptr %8, align 8
  %67 = load i32, ptr %9, align 4
  %68 = insertvalue { ptr, i32 } poison, ptr %66, 0
  %69 = insertvalue { ptr, i32 } %68, i32 %67, 1
  resume { ptr, i32 } %69
}

; Function Attrs: mustprogress uwtable
define internal noundef zeroext i1 @_ZN4absl18debugging_internalL17ParseOneCharTokenEPNS0_5StateEc(ptr noundef %0, i8 noundef signext %1) #0 personality ptr @__gxx_personality_v0 {
  %3 = alloca i1, align 1
  %4 = alloca ptr, align 8
  %5 = alloca i8, align 1
  %6 = alloca %"class.absl::debugging_internal::(anonymous namespace)::ComplexityGuard", align 8
  %7 = alloca i32, align 4
  %8 = alloca ptr, align 8
  %9 = alloca i32, align 4
  store ptr %0, ptr %4, align 8, !tbaa !16
  store i8 %1, ptr %5, align 1, !tbaa !11
  call void @llvm.lifetime.start.p0(i64 8, ptr %6) #12
  %10 = load ptr, ptr %4, align 8, !tbaa !16
  call void @_ZN4absl18debugging_internal12_GLOBAL__N_115ComplexityGuardC2EPNS0_5StateE(ptr noundef nonnull align 8 dereferenceable(8) %6, ptr noundef %10)
  %11 = call noundef zeroext i1 @_ZNK4absl18debugging_internal12_GLOBAL__N_115ComplexityGuard12IsTooComplexEv(ptr noundef nonnull align 8 dereferenceable(8) %6)
  br i1 %11, label %12, label %13

12:                                               ; preds = %2
  store i1 false, ptr %3, align 1
  store i32 1, ptr %7, align 4
  br label %35

13:                                               ; preds = %2
  %14 = load ptr, ptr %4, align 8, !tbaa !16
  %15 = invoke noundef ptr @_ZN4absl18debugging_internalL14RemainingInputEPNS0_5StateE(ptr noundef %14)
          to label %16 unwind label %30

16:                                               ; preds = %13
  %17 = getelementptr inbounds i8, ptr %15, i64 0
  %18 = load i8, ptr %17, align 1, !tbaa !11
  %19 = sext i8 %18 to i32
  %20 = load i8, ptr %5, align 1, !tbaa !11
  %21 = sext i8 %20 to i32
  %22 = icmp eq i32 %19, %21
  br i1 %22, label %23, label %34

23:                                               ; preds = %16
  %24 = load ptr, ptr %4, align 8, !tbaa !16
  %25 = getelementptr inbounds nuw %"struct.absl::debugging_internal::State", ptr %24, i32 0, i32 5
  %26 = getelementptr inbounds nuw %"struct.absl::debugging_internal::ParseState", ptr %25, i32 0, i32 0
  %27 = load i32, ptr %26, align 4, !tbaa !22
  %28 = add nsw i32 %27, 1
  store i32 %28, ptr %26, align 4, !tbaa !22
  %29 = load ptr, ptr %4, align 8, !tbaa !16
  call void @_ZN4absl18debugging_internal12_GLOBAL__N_119UpdateHighWaterMarkEPNS0_5StateE(ptr noundef %29)
  store i1 true, ptr %3, align 1
  store i32 1, ptr %7, align 4
  br label %35

30:                                               ; preds = %13
  %31 = landingpad { ptr, i32 }
          cleanup
  %32 = extractvalue { ptr, i32 } %31, 0
  store ptr %32, ptr %8, align 8
  %33 = extractvalue { ptr, i32 } %31, 1
  store i32 %33, ptr %9, align 4
  call void @_ZN4absl18debugging_internal12_GLOBAL__N_115ComplexityGuardD2Ev(ptr noundef nonnull align 8 dereferenceable(8) %6) #12
  call void @llvm.lifetime.end.p0(i64 8, ptr %6) #12
  br label %37

34:                                               ; preds = %16
  store i1 false, ptr %3, align 1
  store i32 1, ptr %7, align 4
  br label %35

35:                                               ; preds = %34, %23, %12
  call void @_ZN4absl18debugging_internal12_GLOBAL__N_115ComplexityGuardD2Ev(ptr noundef nonnull align 8 dereferenceable(8) %6) #12
  call void @llvm.lifetime.end.p0(i64 8, ptr %6) #12
  %36 = load i1, ptr %3, align 1
  ret i1 %36

37:                                               ; preds = %30
  %38 = load ptr, ptr %8, align 8
  %39 = load i32, ptr %9, align 4
  %40 = insertvalue { ptr, i32 } poison, ptr %38, 0
  %41 = insertvalue { ptr, i32 } %40, i32 %39, 1
  resume { ptr, i32 } %41
}

; Function Attrs: mustprogress nounwind uwtable
define internal noundef zeroext i1 @_ZNK4absl18debugging_internal12_GLOBAL__N_115ComplexityGuard12IsTooComplexEv(ptr noundef nonnull align 8 dereferenceable(8) %0) #3 align 2 {
  %2 = alloca i1, align 1
  %3 = alloca ptr, align 8
  store ptr %0, ptr %3, align 8, !tbaa !27
  %4 = load ptr, ptr %3, align 8
  %5 = getelementptr inbounds nuw %"class.absl::debugging_internal::(anonymous namespace)::ComplexityGuard", ptr %4, i32 0, i32 0
  %6 = load ptr, ptr %5, align 8, !tbaa !29
  %7 = getelementptr inbounds nuw %"struct.absl::debugging_internal::State", ptr %6, i32 0, i32 3
  %8 = load i32, ptr %7, align 4, !tbaa !20
  %9 = icmp sgt i32 %8, 256
  br i1 %9, label %16, label %10

10:                                               ; preds = %1
  %11 = getelementptr inbounds nuw %"class.absl::debugging_internal::(anonymous namespace)::ComplexityGuard", ptr %4, i32 0, i32 0
  %12 = load ptr, ptr %11, align 8, !tbaa !29
  %13 = getelementptr inbounds nuw %"struct.absl::debugging_internal::State", ptr %12, i32 0, i32 4
  %14 = load i32, ptr %13, align 8, !tbaa !21
  %15 = icmp sgt i32 %14, 131072
  br i1 %15, label %16, label %17

16:                                               ; preds = %10, %1
  store i1 true, ptr %2, align 1
  br label %18

17:                                               ; preds = %10
  store i1 false, ptr %2, align 1
  br label %18

18:                                               ; preds = %17, %16
  %19 = load i1, ptr %2, align 1
  ret i1 %19
}

; Function Attrs: mustprogress nounwind uwtable
define internal void @_ZN4absl18debugging_internal12_GLOBAL__N_115ComplexityGuardC2EPNS0_5StateE(ptr noundef nonnull align 8 dereferenceable(8) %0, ptr noundef %1) unnamed_addr #3 align 2 {
  %3 = alloca ptr, align 8
  %4 = alloca ptr, align 8
  store ptr %0, ptr %3, align 8, !tbaa !27
  store ptr %1, ptr %4, align 8, !tbaa !16
  %5 = load ptr, ptr %3, align 8
  %6 = getelementptr inbounds nuw %"class.absl::debugging_internal::(anonymous namespace)::ComplexityGuard", ptr %5, i32 0, i32 0
  %7 = load ptr, ptr %4, align 8, !tbaa !16
  store ptr %7, ptr %6, align 8, !tbaa !29
  %8 = load ptr, ptr %4, align 8, !tbaa !16
  %9 = getelementptr inbounds nuw %"struct.absl::debugging_internal::State", ptr %8, i32 0, i32 3
  %10 = load i32, ptr %9, align 4, !tbaa !20
  %11 = add nsw i32 %10, 1
  store i32 %11, ptr %9, align 4, !tbaa !20
  %12 = load ptr, ptr %4, align 8, !tbaa !16
  %13 = getelementptr inbounds nuw %"struct.absl::debugging_internal::State", ptr %12, i32 0, i32 4
  %14 = load i32, ptr %13, align 8, !tbaa !21
  %15 = add nsw i32 %14, 1
  store i32 %15, ptr %13, align 8, !tbaa !21
  ret void
}

; Function Attrs: mustprogress uwtable
define internal noundef zeroext i1 @_ZN4absl18debugging_internalL13ParseDecltypeEPNS0_5StateE(ptr noundef %0) #0 personality ptr @__gxx_personality_v0 {
  %2 = alloca i1, align 1
  %3 = alloca ptr, align 8
  %4 = alloca %"class.absl::debugging_internal::(anonymous namespace)::ComplexityGuard", align 8
  %5 = alloca i32, align 4
  %6 = alloca %"struct.absl::debugging_internal::ParseState", align 4
  %7 = alloca ptr, align 8
  %8 = alloca i32, align 4
  store ptr %0, ptr %3, align 8, !tbaa !16
  call void @llvm.lifetime.start.p0(i64 8, ptr %4) #12
  %9 = load ptr, ptr %3, align 8, !tbaa !16
  call void @_ZN4absl18debugging_internal12_GLOBAL__N_115ComplexityGuardC2EPNS0_5StateE(ptr noundef nonnull align 8 dereferenceable(8) %4, ptr noundef %9)
  %10 = call noundef zeroext i1 @_ZNK4absl18debugging_internal12_GLOBAL__N_115ComplexityGuard12IsTooComplexEv(ptr noundef nonnull align 8 dereferenceable(8) %4)
  br i1 %10, label %11, label %12

11:                                               ; preds = %1
  store i1 false, ptr %2, align 1
  store i32 1, ptr %5, align 4
  br label %39

12:                                               ; preds = %1
  call void @llvm.lifetime.start.p0(i64 16, ptr %6) #12
  %13 = load ptr, ptr %3, align 8, !tbaa !16
  %14 = getelementptr inbounds nuw %"struct.absl::debugging_internal::State", ptr %13, i32 0, i32 5
  call void @llvm.memcpy.p0.p0.i64(ptr align 4 %6, ptr align 4 %14, i64 16, i1 false), !tbaa.struct !39
  %15 = load ptr, ptr %3, align 8, !tbaa !16
  %16 = invoke noundef zeroext i1 @_ZN4absl18debugging_internalL17ParseOneCharTokenEPNS0_5StateEc(ptr noundef %15, i8 noundef signext 68)
          to label %17 unwind label %31

17:                                               ; preds = %12
  br i1 %16, label %18, label %35

18:                                               ; preds = %17
  %19 = load ptr, ptr %3, align 8, !tbaa !16
  %20 = invoke noundef zeroext i1 @_ZN4absl18debugging_internalL14ParseCharClassEPNS0_5StateEPKc(ptr noundef %19, ptr noundef @.str.9)
          to label %21 unwind label %31

21:                                               ; preds = %18
  br i1 %20, label %22, label %35

22:                                               ; preds = %21
  %23 = load ptr, ptr %3, align 8, !tbaa !16
  %24 = invoke noundef zeroext i1 @_ZN4absl18debugging_internalL15ParseExpressionEPNS0_5StateE(ptr noundef %23)
          to label %25 unwind label %31

25:                                               ; preds = %22
  br i1 %24, label %26, label %35

26:                                               ; preds = %25
  %27 = load ptr, ptr %3, align 8, !tbaa !16
  %28 = invoke noundef zeroext i1 @_ZN4absl18debugging_internalL17ParseOneCharTokenEPNS0_5StateEc(ptr noundef %27, i8 noundef signext 69)
          to label %29 unwind label %31

29:                                               ; preds = %26
  br i1 %28, label %30, label %35

30:                                               ; preds = %29
  store i1 true, ptr %2, align 1
  store i32 1, ptr %5, align 4
  br label %38

31:                                               ; preds = %26, %22, %18, %12
  %32 = landingpad { ptr, i32 }
          cleanup
  %33 = extractvalue { ptr, i32 } %32, 0
  store ptr %33, ptr %7, align 8
  %34 = extractvalue { ptr, i32 } %32, 1
  store i32 %34, ptr %8, align 4
  call void @llvm.lifetime.end.p0(i64 16, ptr %6) #12
  call void @_ZN4absl18debugging_internal12_GLOBAL__N_115ComplexityGuardD2Ev(ptr noundef nonnull align 8 dereferenceable(8) %4) #12
  call void @llvm.lifetime.end.p0(i64 8, ptr %4) #12
  br label %41

35:                                               ; preds = %29, %25, %21, %17
  %36 = load ptr, ptr %3, align 8, !tbaa !16
  %37 = getelementptr inbounds nuw %"struct.absl::debugging_internal::State", ptr %36, i32 0, i32 5
  call void @llvm.memcpy.p0.p0.i64(ptr align 4 %37, ptr align 4 %6, i64 16, i1 false), !tbaa.struct !39
  store i1 false, ptr %2, align 1
  store i32 1, ptr %5, align 4
  br label %38

38:                                               ; preds = %35, %30
  call void @llvm.lifetime.end.p0(i64 16, ptr %6) #12
  br label %39

39:                                               ; preds = %38, %11
  call void @_ZN4absl18debugging_internal12_GLOBAL__N_115ComplexityGuardD2Ev(ptr noundef nonnull align 8 dereferenceable(8) %4) #12
  call void @llvm.lifetime.end.p0(i64 8, ptr %4) #12
  %40 = load i1, ptr %2, align 1
  ret i1 %40

41:                                               ; preds = %31
  %42 = load ptr, ptr %7, align 8
  %43 = load i32, ptr %8, align 4
  %44 = insertvalue { ptr, i32 } poison, ptr %42, 0
  %45 = insertvalue { ptr, i32 } %44, i32 %43, 1
  resume { ptr, i32 } %45
}