; Function Attrs: mustprogress nofree nosync memory(readwrite, inaccessiblemem: none) uwtable
define internal fastcc noundef zeroext i1 @_ZN4absl18debugging_internalL13ParseDecltypeEPNS0_5StateE(ptr noundef %0) unnamed_addr #6 personality ptr @__gxx_personality_v0 {
  %2 = alloca %"struct.absl::debugging_internal::ParseState", align 4
  %3 = getelementptr inbounds nuw i8, ptr %0, i64 20
  %4 = load i32, ptr %3, align 4, !tbaa !17
  %5 = add nsw i32 %4, 1
  store i32 %5, ptr %3, align 4, !tbaa !17
  %6 = getelementptr inbounds nuw i8, ptr %0, i64 24
  %7 = load i32, ptr %6, align 8, !tbaa !15
  %8 = add nsw i32 %7, 1
  store i32 %8, ptr %6, align 8, !tbaa !15
  %9 = icmp sgt i32 %4, 255
  %10 = icmp sgt i32 %7, 131071
  %or.cond = select i1 %9, i1 true, i1 %10
  br i1 %or.cond, label %_ZNK4absl18debugging_internal12_GLOBAL__N_115ComplexityGuard12IsTooComplexEv.exit.thread, label %11

11:                                               ; preds = %1
  call void @llvm.lifetime.start.p0(i64 16, ptr nonnull %2)
  %12 = getelementptr inbounds nuw i8, ptr %0, i64 28
  call void @llvm.memcpy.p0.p0.i64(ptr noundef nonnull align 4 dereferenceable(16) %2, ptr noundef nonnull align 4 dereferenceable(16) %12, i64 16, i1 false), !tbaa.struct !31
  %13 = add nsw i32 %4, 2
  store i32 %13, ptr %3, align 4, !tbaa !17
  %14 = add nsw i32 %7, 2
  store i32 %14, ptr %6, align 8, !tbaa !15
  %15 = icmp sgt i32 %4, 254
  %16 = icmp sgt i32 %7, 131070
  %or.cond.i = select i1 %15, i1 true, i1 %16
  br i1 %or.cond.i, label %.sink.split, label %17

17:                                               ; preds = %11
  %.val6.i = load ptr, ptr %0, align 8, !tbaa !7
  %.val7.i = load i32, ptr %12, align 4, !tbaa !16
  %18 = sext i32 %.val7.i to i64
  %19 = getelementptr inbounds i8, ptr %.val6.i, i64 %18
  %20 = load i8, ptr %19, align 1, !tbaa !4
  %21 = icmp eq i8 %20, 68
  br i1 %21, label %22, label %.sink.split

22:                                               ; preds = %17
  %23 = add nsw i32 %.val7.i, 1
  store i32 %23, ptr %12, align 4, !tbaa !16
  store i32 %13, ptr %3, align 4, !tbaa !17
  %24 = add nsw i32 %7, 3
  store i32 %24, ptr %6, align 8, !tbaa !15
  %25 = icmp sgt i32 %7, 131069
  br i1 %25, label %.sink.split, label %26

26:                                               ; preds = %22
  %27 = sext i32 %23 to i64
  %28 = getelementptr inbounds i8, ptr %.val6.i, i64 %27
  %29 = load i8, ptr %28, align 1, !tbaa !4
  %30 = icmp eq i8 %29, 0
  br i1 %30, label %.sink.split, label %.lr.ph.i

31:                                               ; preds = %.lr.ph.i
  %.018.i.add = add nuw nsw i64 %.018.i.idx, 1
  %.ptr = getelementptr inbounds nuw i8, ptr @.str.9, i64 %.018.i.add
  %32 = load i8, ptr %.ptr, align 1, !tbaa !4
  %exitcond = icmp eq i64 %.018.i.add, 2
  br i1 %exitcond, label %.sink.split, label %.lr.ph.i, !llvm.loop !32

.lr.ph.i:                                         ; preds = %26, %31
  %33 = phi i8 [ %32, %31 ], [ 116, %26 ]
  %.018.i.idx = phi i64 [ %.018.i.add, %31 ], [ 0, %26 ]
  %34 = icmp eq i8 %29, %33
  br i1 %34, label %35, label %31

35:                                               ; preds = %.lr.ph.i
  %36 = add nsw i32 %.val7.i, 2
  store i32 %36, ptr %12, align 4, !tbaa !16
  store i32 %5, ptr %3, align 4, !tbaa !17
  %37 = invoke fastcc noundef zeroext i1 @_ZN4absl18debugging_internalL15ParseExpressionEPNS0_5StateE(ptr noundef nonnull %0)
          to label %38 unwind label %51

38:                                               ; preds = %35
  %.pre.pre.pre = load i32, ptr %3, align 4, !tbaa !17
  br i1 %37, label %39, label %55

39:                                               ; preds = %38
  %40 = add nsw i32 %.pre.pre.pre, 1
  store i32 %40, ptr %3, align 4, !tbaa !17
  %41 = load i32, ptr %6, align 8, !tbaa !15
  %42 = add nsw i32 %41, 1
  store i32 %42, ptr %6, align 8, !tbaa !15
  %43 = icmp sgt i32 %.pre.pre.pre, 255
  %44 = icmp sgt i32 %41, 131071
  %or.cond.i13 = select i1 %43, i1 true, i1 %44
  br i1 %or.cond.i13, label %.sink.split, label %45

45:                                               ; preds = %39
  %.val6.i14 = load ptr, ptr %0, align 8, !tbaa !7
  %.val7.i15 = load i32, ptr %12, align 4, !tbaa !16
  %46 = sext i32 %.val7.i15 to i64
  %47 = getelementptr inbounds i8, ptr %.val6.i14, i64 %46
  %48 = load i8, ptr %47, align 1, !tbaa !4
  %49 = icmp eq i8 %48, 69
  br i1 %49, label %_ZN4absl18debugging_internalL17ParseOneCharTokenEPNS0_5StateEc.exit17, label %.sink.split

_ZN4absl18debugging_internalL17ParseOneCharTokenEPNS0_5StateEc.exit17: ; preds = %45
  %50 = add nsw i32 %.val7.i15, 1
  store i32 %50, ptr %12, align 4, !tbaa !16
  store i32 %.pre.pre.pre, ptr %3, align 4, !tbaa !17
  br label %56

51:                                               ; preds = %35
  %52 = landingpad { ptr, i32 }
          cleanup
  call void @llvm.lifetime.end.p0(i64 16, ptr nonnull %2)
  %53 = load i32, ptr %3, align 4, !tbaa !17
  %54 = add nsw i32 %53, -1
  store i32 %54, ptr %3, align 4, !tbaa !17
  resume { ptr, i32 } %52

.sink.split:                                      ; preds = %31, %39, %45, %22, %26, %11, %17
  %.pre.pre.pre.sink = phi i32 [ %5, %17 ], [ %5, %11 ], [ %5, %26 ], [ %5, %22 ], [ %.pre.pre.pre, %45 ], [ %.pre.pre.pre, %39 ], [ %5, %31 ]
  store i32 %.pre.pre.pre.sink, ptr %3, align 4, !tbaa !17
  br label %55

55:                                               ; preds = %.sink.split, %38
  %.pre.pre = phi i32 [ %.pre.pre.pre, %38 ], [ %.pre.pre.pre.sink, %.sink.split ]
  call void @llvm.memcpy.p0.p0.i64(ptr noundef nonnull align 4 dereferenceable(16) %12, ptr noundef nonnull align 4 dereferenceable(16) %2, i64 16, i1 false), !tbaa.struct !31
  br label %56

56:                                               ; preds = %_ZN4absl18debugging_internalL17ParseOneCharTokenEPNS0_5StateEc.exit17, %55
  %.pre = phi i32 [ %.pre.pre, %55 ], [ %.pre.pre.pre, %_ZN4absl18debugging_internalL17ParseOneCharTokenEPNS0_5StateEc.exit17 ]
  %.1 = phi i1 [ false, %55 ], [ true, %_ZN4absl18debugging_internalL17ParseOneCharTokenEPNS0_5StateEc.exit17 ]
  call void @llvm.lifetime.end.p0(i64 16, ptr nonnull %2)
  %57 = add nsw i32 %.pre, -1
  br label %_ZNK4absl18debugging_internal12_GLOBAL__N_115ComplexityGuard12IsTooComplexEv.exit.thread

_ZNK4absl18debugging_internal12_GLOBAL__N_115ComplexityGuard12IsTooComplexEv.exit.thread: ; preds = %1, %56
  %58 = phi i32 [ %57, %56 ], [ %4, %1 ]
  %.0 = phi i1 [ %.1, %56 ], [ false, %1 ]
  store i32 %58, ptr %3, align 4, !tbaa !17
  ret i1 %.0
}